Certificate:
    Data:
        Version: 3 (0x2)
        Serial Number: 239 (0xef)
    Signature Algorithm: sha256WithRSAEncryption
        Issuer: C=RU, ST=RU, L=Moscow, O=Nefrosovet, OU=IT, CN=Nefrosovet CA/emailAddress=adm@nefrosovet.ru
        Validity
            Not Before: Nov 21 14:24:47 2018 GMT
            Not After : Nov 18 14:24:47 2028 GMT
        Subject: C=RU, ST=RU, L=Moscow, O=Nefrosovet, OU=IT, CN=r.m.khaliullov/emailAddress=adm@nefrosovet.ru
        Subject Public Key Info:
            Public Key Algorithm: rsaEncryption
                Public-Key: (2048 bit)
                Modulus:
                    00:eb:82:1b:9e:02:d2:8d:16:46:fb:91:95:2e:f7:
                    2c:2a:4f:c5:3c:4b:b1:5e:56:0c:d1:d6:51:88:47:
                    df:fd:10:25:73:7a:06:d1:2c:16:82:68:ff:1f:e3:
                    06:8f:22:af:2a:25:cf:fe:5c:27:3b:3e:58:da:f2:
                    9a:8d:5a:61:d6:7e:92:15:dc:54:15:35:a2:b8:aa:
                    e8:c6:1b:ec:eb:f2:61:04:5d:03:68:b0:a9:7c:da:
                    5a:55:e4:0e:1b:b0:4c:a8:32:3a:aa:20:61:d5:3d:
                    12:57:14:f3:3b:27:81:ce:01:31:55:86:a1:48:10:
                    47:16:80:26:75:fc:95:3d:2c:4a:fb:f1:cf:45:f6:
                    63:bd:30:e3:5d:16:e3:28:77:b9:0f:ca:bc:f8:e1:
                    16:2c:b4:e0:f0:b4:b5:90:0b:7e:02:a4:4e:b6:84:
                    91:90:c4:78:0d:d7:54:7a:1c:bb:78:ff:09:64:3d:
                    d0:c1:1d:f0:e7:04:e1:37:c0:67:59:2e:75:d7:db:
                    33:dc:f3:72:e7:92:4b:2b:b1:26:cc:ef:77:59:a3:
                    6f:76:54:ff:4d:b9:9f:df:c7:ef:db:50:26:da:aa:
                    e6:df:af:01:a9:a0:1d:af:23:5c:9a:58:46:67:86:
                    73:84:f6:cf:82:59:1d:b5:47:6f:ac:46:c7:a4:1f:
                    b0:ef
                Exponent: 65537 (0x10001)
        X509v3 extensions:
            X509v3 Basic Constraints: 
                CA:FALSE
            Netscape Comment: 
                Easy-RSA Generated Certificate
            X509v3 Subject Key Identifier: 
                B2:42:B7:49:E8:17:17:8D:8A:A0:BF:0E:B5:6A:6D:6E:B4:9B:A7:A6
            X509v3 Authority Key Identifier: 
                keyid:21:CE:BE:4D:0E:84:70:7A:90:19:C4:D4:AC:DA:34:B1:61:66:7C:D1
                DirName:/C=RU/ST=RU/L=Moscow/O=Nefrosovet/OU=IT/CN=Nefrosovet CA/emailAddress=adm@nefrosovet.ru
                serial:B7:43:95:BE:10:D4:FE:01

            X509v3 Extended Key Usage: 
                TLS Web Client Authentication
            X509v3 Key Usage: 
                Digital Signature
    Signature Algorithm: sha256WithRSAEncryption
         1e:22:4b:15:f6:ee:de:be:aa:37:2f:2c:44:04:d7:12:76:90:
         7e:c2:e1:10:9e:6d:b4:8b:79:d4:a2:bf:bc:ec:38:90:1d:eb:
         1b:d4:15:d1:98:9e:74:39:45:c5:5a:97:85:0c:d8:90:63:c0:
         cc:0e:26:16:22:27:1a:8e:3e:b7:3a:36:3e:dc:2f:ee:27:e5:
         90:ae:13:a4:e5:54:5b:70:cd:f1:70:5d:eb:9b:e2:3b:23:44:
         04:d9:92:95:34:25:79:26:36:94:34:36:91:05:a3:25:ac:0e:
         43:ff:9a:59:2e:47:0d:b0:56:4b:14:4d:cf:08:e7:f6:d3:8a:
         89:40:5c:fa:ba:14:f2:79:15:67:03:38:b8:db:43:eb:8e:d9:
         dd:32:69:ca:db:61:fe:a7:73:11:3d:0c:ab:1c:ed:28:8d:78:
         4b:e4:01:9a:e0:61:10:aa:0b:8f:a6:9b:62:56:f6:bd:a2:3f:
         1e:64:96:35:ca:12:40:74:36:ec:3e:29:e3:a3:d7:54:16:59:
         3c:cb:dc:4e:81:35:52:3e:40:23:68:cd:f6:c4:32:0f:53:61:
         bd:7c:d1:4e:05:b9:91:cc:38:67:dd:ae:ee:6a:bb:98:b7:f5:
         96:3c:2d:e2:f3:cf:f6:bf:c6:e2:44:06:ef:dd:bb:fe:33:59:
         c9:2d:e9:6a
-----BEGIN CERTIFICATE-----
MIIEzTCCA7WgAwIBAgICAO8wDQYJKoZIhvcNAQELBQAwgYcxCzAJBgNVBAYTAlJV
MQswCQYDVQQIEwJSVTEPMA0GA1UEBxMGTW9zY293MRMwEQYDVQQKEwpOZWZyb3Nv
dmV0MQswCQYDVQQLEwJJVDEWMBQGA1UEAxMNTmVmcm9zb3ZldCBDQTEgMB4GCSqG
SIb3DQEJARYRYWRtQG5lZnJvc292ZXQucnUwHhcNMTgxMTIxMTQyNDQ3WhcNMjgx
MTE4MTQyNDQ3WjCBiDELMAkGA1UEBhMCUlUxCzAJBgNVBAgTAlJVMQ8wDQYDVQQH
EwZNb3Njb3cxEzARBgNVBAoTCk5lZnJvc292ZXQxCzAJBgNVBAsTAklUMRcwFQYD
VQQDEw5yLm0ua2hhbGl1bGxvdjEgMB4GCSqGSIb3DQEJARYRYWRtQG5lZnJvc292
ZXQucnUwggEiMA0GCSqGSIb3DQEBAQUAA4IBDwAwggEKAoIBAQDrghueAtKNFkb7
kZUu9ywqT8U8S7FeVgzR1lGIR9/9ECVzegbRLBaCaP8f4waPIq8qJc/+XCc7Plja
8pqNWmHWfpIV3FQVNaK4qujGG+zr8mEEXQNosKl82lpV5A4bsEyoMjqqIGHVPRJX
FPM7J4HOATFVhqFIEEcWgCZ1/JU9LEr78c9F9mO9MONdFuMod7kPyrz44RYstODw
tLWQC34CpE62hJGQxHgN11R6HLt4/wlkPdDBHfDnBOE3wGdZLnXX2zPc83Lnkksr
sSbM73dZo292VP9NuZ/fx+/bUCbaqubfrwGpoB2vI1yaWEZnhnOE9s+CWR21R2+s
RsekH7DvAgMBAAGjggE+MIIBOjAJBgNVHRMEAjAAMC0GCWCGSAGG+EIBDQQgFh5F
YXN5LVJTQSBHZW5lcmF0ZWQgQ2VydGlmaWNhdGUwHQYDVR0OBBYEFLJCt0noFxeN
iqC/DrVqbW60m6emMIG8BgNVHSMEgbQwgbGAFCHOvk0OhHB6kBnE1KzaNLFhZnzR
oYGNpIGKMIGHMQswCQYDVQQGEwJSVTELMAkGA1UECBMCUlUxDzANBgNVBAcTBk1v
c2NvdzETMBEGA1UEChMKTmVmcm9zb3ZldDELMAkGA1UECxMCSVQxFjAUBgNVBAMT
DU5lZnJvc292ZXQgQ0ExIDAeBgkqhkiG9w0BCQEWEWFkbUBuZWZyb3NvdmV0LnJ1
ggkAt0OVvhDU/gEwEwYDVR0lBAwwCgYIKwYBBQUHAwIwCwYDVR0PBAQDAgeAMA0G
CSqGSIb3DQEBCwUAA4IBAQAeIksV9u7evqo3LyxEBNcSdpB+wuEQnm20i3nUor+8
7DiQHesb1BXRmJ50OUXFWpeFDNiQY8DMDiYWIicajj63OjY+3C/uJ+WQrhOk5VRb
cM3xcF3rm+I7I0QE2ZKVNCV5JjaUNDaRBaMlrA5D/5pZLkcNsFZLFE3PCOf204qJ
QFz6uhTyeRVnAzi420PrjtndMmnK22H+p3MRPQyrHO0ojXhL5AGa4GEQqguPppti
Vva9oj8eZJY1yhJAdDbsPinjo9dUFlk8y9xOgTVSPkAjaM32xDIPU2G9fNFOBbmR
zDhn3a7uaruYt/WWPC3i88/2v8biRAbv3bv+M1nJLelq
-----END CERTIFICATE-----
